target datalayout = "e-m:e-p270:32:32-p271:32:32-p272:64:64-i64:64-i128:128-f80:128-n8:16:32:64-S128"
target triple = "x86_64-pc-linux-gnu"

%struct.QMetaObject = type { %"struct.QMetaObject::Data" }
%"struct.QMetaObject::Data" = type { %"struct.QMetaObject::SuperData", ptr, ptr, ptr, ptr, ptr, ptr }
%"struct.QMetaObject::SuperData" = type { ptr }
%class.ByteViewTab = type <{ %class.QTabWidget, ptr, i8, [7 x i8], ptr, i8, [7 x i8] }>
%class.QTabWidget = type { %class.QWidget }
%class.QWidget = type { %class.QObject, %class.QPaintDevice.base, ptr }
%class.QObject = type { ptr, %class.QScopedPointer }
%class.QScopedPointer = type { ptr }
%class.QPaintDevice.base = type <{ ptr, i16 }>
%struct._capture_file = type { ptr, i32, ptr, ptr, i32, i32, i32, i64, i16, i32, i32, i32, ptr, i32, i64, i32, i32, i32, i32, i32, i32, %struct.nstime_t, i32, ptr, ptr, ptr, i32, i32, i32, ptr, i32, i32, i32, i32, i32, i32, i32, i32, ptr, i32, i32, i32, %struct.packet_provider_data, i32, i32, %struct.epan_column_info, ptr, ptr, ptr, %struct.wtap_rec, %struct.Buffer, ptr, i64, i32 }
%struct.nstime_t = type { i64, i32 }
%struct.packet_provider_data = type { ptr, ptr, ptr, ptr, ptr, ptr }
%struct.epan_column_info = type { ptr, i32, ptr, ptr, ptr, %struct.col_expr_t, i32, ptr }
%struct.col_expr_t = type { ptr, ptr }
%struct.wtap_rec = type { i32, i32, i32, %struct.nstime_t, i32, %struct.nstime_t, i32, %union.anon.22, ptr, i32, %struct.Buffer }
%union.anon.22 = type { %struct.wtap_packet_header }
%struct.wtap_packet_header = type { i32, i32, i32, i32, %union.wtap_pseudo_header }
%union.wtap_pseudo_header = type { %struct.erf_mc_phdr }
%struct.erf_mc_phdr = type { %struct.erf_phdr, [16 x %struct.erf_ehdr], %union.anon.25 }
%struct.erf_phdr = type { i64, i8, i8, i16, i16, i16 }
%struct.erf_ehdr = type { i64 }
%union.anon.25 = type { i32 }
%struct.Buffer = type { ptr, i64, i64, i64 }
%"struct.FieldInformation::Position" = type { i32, i32 }

@_ZN12ByteViewText16staticMetaObjectE = external global %struct.QMetaObject, align 8

; Function Attrs: mustprogress uwtable
define linkonce_odr noundef ptr @_ZNK11QMetaObject4castEP7QObject(ptr noundef nonnull align 8 dereferenceable(56) %0, ptr noundef %1) #0 comdat align 2 {
  %3 = alloca ptr, align 8
  %4 = alloca ptr, align 8
  store ptr %0, ptr %3, align 8
  store ptr %1, ptr %4, align 8
  %5 = load ptr, ptr %3, align 8
  %6 = load ptr, ptr %4, align 8
  %7 = call noundef ptr @_ZNK11QMetaObject4castEPK7QObject(ptr noundef nonnull align 8 dereferenceable(56) %5, ptr noundef %6)
  ret ptr %7
}

; Function Attrs: mustprogress uwtable
define linkonce_odr noundef ptr @_Z12qobject_castIP12ByteViewTextET_P7QObject(ptr noundef %0) #0 comdat {
  %2 = alloca ptr, align 8
  store ptr %0, ptr %2, align 8
  %3 = load ptr, ptr %2, align 8
  %4 = call noundef ptr @_ZNK11QMetaObject4castEP7QObject(ptr noundef nonnull align 8 dereferenceable(56) @_ZN12ByteViewText16staticMetaObjectE, ptr noundef %3)
  ret ptr %4
}

; Function Attrs: mustprogress uwtable
define void @_ZN11ByteViewTab23highlightedFieldChangedEP16FieldInformation(ptr noundef nonnull align 8 dereferenceable(65) %0, ptr noundef %1) #0 align 2 {
  %3 = alloca ptr, align 8
  %4 = alloca ptr, align 8
  %5 = alloca ptr, align 8
  %6 = alloca i32, align 4
  %7 = alloca i32, align 4
  %8 = alloca %"struct.FieldInformation::Position", align 4
  %9 = alloca %"struct.FieldInformation::Position", align 4
  store ptr %0, ptr %3, align 8
  store ptr %1, ptr %4, align 8
  %10 = load ptr, ptr %3, align 8
  %11 = call noundef ptr @_ZNK10QTabWidget13currentWidgetEv(ptr noundef nonnull align 8 dereferenceable(40) %10)
  %12 = call noundef ptr @_Z12qobject_castIP12ByteViewTextET_P7QObject(ptr noundef %11)
  store ptr %12, ptr %5, align 8
  %13 = load ptr, ptr %4, align 8
  %14 = icmp ne ptr %13, null
  br i1 %14, label %15, label %18

15:                                               ; preds = %2
  %16 = load ptr, ptr %5, align 8
  %17 = icmp ne ptr %16, null
  br i1 %17, label %19, label %18

18:                                               ; preds = %15, %2
  br label %73

19:                                               ; preds = %15
  store i32 -1, ptr %6, align 4
  store i32 -1, ptr %7, align 4
  %20 = getelementptr inbounds %class.ByteViewTab, ptr %10, i32 0, i32 1
  %21 = load ptr, ptr %20, align 8
  %22 = getelementptr inbounds %struct._capture_file, ptr %21, i32 0, i32 41
  %23 = load i32, ptr %22, align 8
  %24 = icmp ne i32 %23, 0
  br i1 %24, label %25, label %58

25:                                               ; preds = %19
  %26 = getelementptr inbounds %class.ByteViewTab, ptr %10, i32 0, i32 1
  %27 = load ptr, ptr %26, align 8
  %28 = getelementptr inbounds %struct._capture_file, ptr %27, i32 0, i32 30
  %29 = load i32, ptr %28, align 8
  %30 = icmp ne i32 %29, 0
  br i1 %30, label %43, label %31

31:                                               ; preds = %25
  %32 = getelementptr inbounds %class.ByteViewTab, ptr %10, i32 0, i32 1
  %33 = load ptr, ptr %32, align 8
  %34 = getelementptr inbounds %struct._capture_file, ptr %33, i32 0, i32 31
  %35 = load i32, ptr %34, align 4
  %36 = icmp ne i32 %35, 0
  br i1 %36, label %37, label %58

37:                                               ; preds = %31
  %38 = getelementptr inbounds %class.ByteViewTab, ptr %10, i32 0, i32 1
  %39 = load ptr, ptr %38, align 8
  %40 = getelementptr inbounds %struct._capture_file, ptr %39, i32 0, i32 34
  %41 = load i32, ptr %40, align 8
  %42 = icmp ne i32 %41, 0
  br i1 %42, label %43, label %58

43:                                               ; preds = %37, %25
  %44 = getelementptr inbounds %class.ByteViewTab, ptr %10, i32 0, i32 1
  %45 = load ptr, ptr %44, align 8
  %46 = getelementptr inbounds %struct._capture_file, ptr %45, i32 0, i32 35
  %47 = load i32, ptr %46, align 4
  %48 = getelementptr inbounds %class.ByteViewTab, ptr %10, i32 0, i32 1
  %49 = load ptr, ptr %48, align 8
  %50 = getelementptr inbounds %struct._capture_file, ptr %49, i32 0, i32 36
  %51 = load i32, ptr %50, align 8
  %52 = sub i32 %47, %51
  %53 = add i32 %52, 1
  store i32 %53, ptr %6, align 4
  %54 = getelementptr inbounds %class.ByteViewTab, ptr %10, i32 0, i32 1
  %55 = load ptr, ptr %54, align 8
  %56 = getelementptr inbounds %struct._capture_file, ptr %55, i32 0, i32 36
  %57 = load i32, ptr %56, align 8
  store i32 %57, ptr %7, align 4
  br label %67

58:                                               ; preds = %37, %31, %19
  %59 = load ptr, ptr %4, align 8
  %60 = call i64 @_ZNK16FieldInformation8positionEv(ptr noundef nonnull align 8 dereferenceable(40) %59)
  store i64 %60, ptr %8, align 4
  %61 = getelementptr inbounds %"struct.FieldInformation::Position", ptr %8, i32 0, i32 0
  %62 = load i32, ptr %61, align 4
  store i32 %62, ptr %6, align 4
  %63 = load ptr, ptr %4, align 8
  %64 = call i64 @_ZNK16FieldInformation8positionEv(ptr noundef nonnull align 8 dereferenceable(40) %63)
  store i64 %64, ptr %9, align 4
  %65 = getelementptr inbounds %"struct.FieldInformation::Position", ptr %9, i32 0, i32 1
  %66 = load i32, ptr %65, align 4
  store i32 %66, ptr %7, align 4
  br label %67

67:                                               ; preds = %58, %43
  %68 = load ptr, ptr %5, align 8
  %69 = load i32, ptr %6, align 4
  %70 = load i32, ptr %7, align 4
  call void @_ZN12ByteViewText9markFieldEiib(ptr noundef nonnull align 8 dereferenceable(328) %68, i32 noundef %69, i32 noundef %70, i1 noundef zeroext false)
  %71 = load ptr, ptr %5, align 8
  call void @_ZN12ByteViewText12markProtocolEii(ptr noundef nonnull align 8 dereferenceable(328) %71, i32 noundef -1, i32 noundef -1)
  %72 = load ptr, ptr %5, align 8
  call void @_ZN12ByteViewText12markAppendixEii(ptr noundef nonnull align 8 dereferenceable(328) %72, i32 noundef -1, i32 noundef -1)
  br label %73

73:                                               ; preds = %67, %18
  ret void
}