; Function Attrs: mustprogress uwtable
define void @_ZN11ByteViewTab23highlightedFieldChangedEP16FieldInformation(ptr noundef nonnull align 8 dereferenceable(65) %0, ptr noundef %1) local_unnamed_addr #0 align 2 {
  %3 = tail call noundef ptr @_ZNK10QTabWidget13currentWidgetEv(ptr noundef nonnull align 8 dereferenceable(40) %0)
  %4 = tail call noundef ptr @_ZNK11QMetaObject4castEPK7QObject(ptr noundef nonnull align 8 dereferenceable(56) @_ZN12ByteViewText16staticMetaObjectE, ptr noundef %3)
  %5 = icmp ne ptr %1, null
  %6 = icmp ne ptr %4, null
  %or.cond = and i1 %5, %6
  br i1 %or.cond, label %7, label %32

7:                                                ; preds = %2
  %8 = getelementptr inbounds i8, ptr %0, i64 40
  %9 = load ptr, ptr %8, align 8
  %10 = getelementptr inbounds i8, ptr %9, i64 240
  %11 = load i32, ptr %10, align 8
  %.not = icmp eq i32 %11, 0
  br i1 %.not, label %28, label %12

12:                                               ; preds = %7
  %13 = getelementptr inbounds i8, ptr %9, i64 192
  %14 = load i32, ptr %13, align 8
  %.not14 = icmp eq i32 %14, 0
  br i1 %.not14, label %15, label %21

15:                                               ; preds = %12
  %16 = getelementptr inbounds i8, ptr %9, i64 196
  %17 = load i32, ptr %16, align 4
  %.not15 = icmp eq i32 %17, 0
  br i1 %.not15, label %28, label %18

18:                                               ; preds = %15
  %19 = getelementptr inbounds i8, ptr %9, i64 208
  %20 = load i32, ptr %19, align 8
  %.not16 = icmp eq i32 %20, 0
  br i1 %.not16, label %28, label %21

21:                                               ; preds = %18, %12
  %22 = getelementptr inbounds i8, ptr %9, i64 212
  %23 = load i32, ptr %22, align 4
  %24 = getelementptr inbounds i8, ptr %9, i64 216
  %25 = load i32, ptr %24, align 8
  %26 = add i32 %23, 1
  %27 = sub i32 %26, %25
  br label %31

28:                                               ; preds = %18, %15, %7
  %29 = tail call i64 @_ZNK16FieldInformation8positionEv(ptr noundef nonnull align 8 dereferenceable(40) %1)
  %.sroa.02.0.extract.trunc = trunc i64 %29 to i32
  %30 = tail call i64 @_ZNK16FieldInformation8positionEv(ptr noundef nonnull align 8 dereferenceable(40) %1)
  %.sroa.1.0.extract.shift = lshr i64 %30, 32
  %.sroa.1.0.extract.trunc = trunc i64 %.sroa.1.0.extract.shift to i32
  br label %31

31:                                               ; preds = %28, %21
  %.011 = phi i32 [ %25, %21 ], [ %.sroa.1.0.extract.trunc, %28 ]
  %.0 = phi i32 [ %27, %21 ], [ %.sroa.02.0.extract.trunc, %28 ]
  tail call void @_ZN12ByteViewText9markFieldEiib(ptr noundef nonnull align 8 dereferenceable(328) %4, i32 noundef %.0, i32 noundef %.011, i1 noundef zeroext false)
  tail call void @_ZN12ByteViewText12markProtocolEii(ptr noundef nonnull align 8 dereferenceable(328) %4, i32 noundef -1, i32 noundef -1)
  tail call void @_ZN12ByteViewText12markAppendixEii(ptr noundef nonnull align 8 dereferenceable(328) %4, i32 noundef -1, i32 noundef -1)
  br label %32

32:                                               ; preds = %2, %31
  ret void
}